target datalayout = "e-m:e-p270:32:32-p271:32:32-p272:64:64-i64:64-i128:128-f80:128-n8:16:32:64-S128"
target triple = "x86_64-pc-linux-gnu"

; Function Attrs: nounwind uwtable
define i32 @bn_from_mont_fixed_top(ptr noundef %0, ptr noundef %1, ptr noundef %2, ptr noundef %3) #0 {
  %5 = alloca ptr, align 8
  %6 = alloca ptr, align 8
  %7 = alloca ptr, align 8
  %8 = alloca ptr, align 8
  %9 = alloca i32, align 4
  %10 = alloca ptr, align 8
  store ptr %0, ptr %5, align 8, !tbaa !3
  store ptr %1, ptr %6, align 8, !tbaa !3
  store ptr %2, ptr %7, align 8, !tbaa !8
  store ptr %3, ptr %8, align 8, !tbaa !10
  call void @llvm.lifetime.start.p0(i64 4, ptr %9) #3
  store i32 0, ptr %9, align 4, !tbaa !12
  call void @llvm.lifetime.start.p0(i64 8, ptr %10) #3
  %11 = load ptr, ptr %8, align 8, !tbaa !10
  call void @BN_CTX_start(ptr noundef %11)
  %12 = load ptr, ptr %8, align 8, !tbaa !10
  %13 = call ptr @BN_CTX_get(ptr noundef %12)
  store ptr %13, ptr %10, align 8, !tbaa !3
  %14 = icmp ne ptr %13, null
  br i1 %14, label %15, label %25

15:                                               ; preds = %4
  %16 = load ptr, ptr %10, align 8, !tbaa !3
  %17 = load ptr, ptr %6, align 8, !tbaa !3
  %18 = call ptr @BN_copy(ptr noundef %16, ptr noundef %17)
  %19 = icmp ne ptr %18, null
  br i1 %19, label %20, label %25

20:                                               ; preds = %15
  %21 = load ptr, ptr %5, align 8, !tbaa !3
  %22 = load ptr, ptr %10, align 8, !tbaa !3
  %23 = load ptr, ptr %7, align 8, !tbaa !8
  %24 = call i32 @bn_from_montgomery_word(ptr noundef %21, ptr noundef %22, ptr noundef %23)
  store i32 %24, ptr %9, align 4, !tbaa !12
  br label %25

25:                                               ; preds = %20, %15, %4
  %26 = load ptr, ptr %8, align 8, !tbaa !10
  call void @BN_CTX_end(ptr noundef %26)
  %27 = load i32, ptr %9, align 4, !tbaa !12
  call void @llvm.lifetime.end.p0(i64 8, ptr %10) #3
  call void @llvm.lifetime.end.p0(i64 4, ptr %9) #3
  ret i32 %27
}

; Function Attrs: nounwind uwtable
define i32 @BN_from_montgomery(ptr noundef %0, ptr noundef %1, ptr noundef %2, ptr noundef %3) #0 {
  %5 = alloca ptr, align 8
  %6 = alloca ptr, align 8
  %7 = alloca ptr, align 8
  %8 = alloca ptr, align 8
  %9 = alloca i32, align 4
  store ptr %0, ptr %5, align 8, !tbaa !3
  store ptr %1, ptr %6, align 8, !tbaa !3
  store ptr %2, ptr %7, align 8, !tbaa !8
  store ptr %3, ptr %8, align 8, !tbaa !10
  call void @llvm.lifetime.start.p0(i64 4, ptr %9) #3
  %10 = load ptr, ptr %5, align 8, !tbaa !3
  %11 = load ptr, ptr %6, align 8, !tbaa !3
  %12 = load ptr, ptr %7, align 8, !tbaa !8
  %13 = load ptr, ptr %8, align 8, !tbaa !10
  %14 = call i32 @bn_from_mont_fixed_top(ptr noundef %10, ptr noundef %11, ptr noundef %12, ptr noundef %13)
  store i32 %14, ptr %9, align 4, !tbaa !12
  %15 = load ptr, ptr %5, align 8, !tbaa !3
  call void @bn_correct_top(ptr noundef %15)
  %16 = load i32, ptr %9, align 4, !tbaa !12
  call void @llvm.lifetime.end.p0(i64 4, ptr %9) #3
  ret i32 %16
}