; Function Attrs: nounwind uwtable
define range(i32 0, 2) i32 @BN_from_montgomery(ptr noundef %0, ptr noundef %1, ptr noundef readonly captures(none) %2, ptr noundef %3) local_unnamed_addr #0 {
  tail call void @BN_CTX_start(ptr noundef %3) #5
  %5 = tail call ptr @BN_CTX_get(ptr noundef %3) #5
  %.not.i = icmp eq ptr %5, null
  br i1 %.not.i, label %bn_from_mont_fixed_top.exit, label %6

6:                                                ; preds = %4
  %7 = tail call ptr @BN_copy(ptr noundef nonnull %5, ptr noundef %1) #5
  %.not9.i = icmp eq ptr %7, null
  br i1 %.not9.i, label %bn_from_mont_fixed_top.exit, label %8

8:                                                ; preds = %6
  %9 = tail call fastcc i32 @bn_from_montgomery_word(ptr noundef %0, ptr noundef %5, ptr noundef readonly %2)
  br label %bn_from_mont_fixed_top.exit

bn_from_mont_fixed_top.exit:                      ; preds = %4, %6, %8
  %.0.i = phi i32 [ %9, %8 ], [ 0, %6 ], [ 0, %4 ]
  tail call void @BN_CTX_end(ptr noundef %3) #5
  tail call void @bn_correct_top(ptr noundef %0) #5
  ret i32 %.0.i
}